target datalayout = "e-m:e-p270:32:32-p271:32:32-p272:64:64-i64:64-i128:128-f80:128-n8:16:32:64-S128"
target triple = "x86_64-pc-linux-gnu"

%struct.ctl_node_s = type { i8 }
%struct.ctl_named_node_s = type { %struct.ctl_node_s, ptr, i64, ptr, ptr }
%struct.ctl_indexed_node_s = type { %struct.ctl_node_s, ptr }

@ctl_initialized = internal global i8 0, align 1
@super_root_node = internal constant [1 x { %struct.ctl_node_s, [7 x i8], ptr, i64, ptr, ptr }] [{ %struct.ctl_node_s, [7 x i8], ptr, i64, ptr, ptr } { %struct.ctl_node_s { i8 1 }, [7 x i8] zeroinitializer, ptr @.str.1, i64 13, ptr @root_node, ptr null }], align 16

; Function Attrs: nounwind uwtable
define internal ptr @ctl_indexed_node(ptr noundef %0) #0 {
  %2 = alloca ptr, align 8
  store ptr %0, ptr %2, align 8, !tbaa !173
  %3 = load ptr, ptr %2, align 8, !tbaa !173
  %4 = getelementptr inbounds nuw %struct.ctl_node_s, ptr %3, i32 0, i32 0
  %5 = load i8, ptr %4, align 1, !tbaa !174, !range !18, !noundef !19
  %6 = trunc i8 %5 to i1
  br i1 %6, label %9, label %7

7:                                                ; preds = %1
  %8 = load ptr, ptr %2, align 8, !tbaa !173
  br label %10

9:                                                ; preds = %1
  br label %10

10:                                               ; preds = %9, %7
  %11 = phi ptr [ %8, %7 ], [ null, %9 ]
  ret ptr %11
}

; Function Attrs: nounwind uwtable
define internal ptr @ctl_named_children(ptr noundef %0, i64 noundef %1) #0 {
  %3 = alloca ptr, align 8
  %4 = alloca i64, align 8
  %5 = alloca ptr, align 8
  store ptr %0, ptr %3, align 8, !tbaa !22
  store i64 %1, ptr %4, align 8, !tbaa !14
  call void @llvm.lifetime.start.p0(i64 8, ptr %5) #13
  %6 = load ptr, ptr %3, align 8, !tbaa !22
  %7 = getelementptr inbounds nuw %struct.ctl_named_node_s, ptr %6, i32 0, i32 3
  %8 = load ptr, ptr %7, align 8, !tbaa !48
  %9 = call ptr @ctl_named_node(ptr noundef %8)
  store ptr %9, ptr %5, align 8, !tbaa !22
  %10 = load ptr, ptr %5, align 8, !tbaa !22
  %11 = icmp ne ptr %10, null
  br i1 %11, label %12, label %16

12:                                               ; preds = %2
  %13 = load ptr, ptr %5, align 8, !tbaa !22
  %14 = load i64, ptr %4, align 8, !tbaa !14
  %15 = getelementptr inbounds nuw %struct.ctl_named_node_s, ptr %13, i64 %14
  br label %17

16:                                               ; preds = %2
  br label %17

17:                                               ; preds = %16, %12
  %18 = phi ptr [ %15, %12 ], [ null, %16 ]
  call void @llvm.lifetime.end.p0(i64 8, ptr %5) #13
  ret ptr %18
}

; Function Attrs: nounwind uwtable
define internal ptr @ctl_named_node(ptr noundef %0) #0 {
  %2 = alloca ptr, align 8
  store ptr %0, ptr %2, align 8, !tbaa !173
  %3 = load ptr, ptr %2, align 8, !tbaa !173
  %4 = getelementptr inbounds nuw %struct.ctl_node_s, ptr %3, i32 0, i32 0
  %5 = load i8, ptr %4, align 1, !tbaa !174, !range !18, !noundef !19
  %6 = trunc i8 %5 to i1
  br i1 %6, label %7, label %9

7:                                                ; preds = %1
  %8 = load ptr, ptr %2, align 8, !tbaa !173
  br label %10

9:                                                ; preds = %1
  br label %10

10:                                               ; preds = %9, %7
  %11 = phi ptr [ %8, %7 ], [ null, %9 ]
  ret ptr %11
}

; Function Attrs: nounwind uwtable
define internal i32 @ctl_lookupbymib(ptr noundef %0, ptr noundef %1, ptr noundef %2, i64 noundef %3) #0 {
  %5 = alloca i32, align 4
  %6 = alloca ptr, align 8
  %7 = alloca ptr, align 8
  %8 = alloca ptr, align 8
  %9 = alloca i64, align 8
  %10 = alloca i32, align 4
  %11 = alloca ptr, align 8
  %12 = alloca i64, align 8
  %13 = alloca i32, align 4
  %14 = alloca ptr, align 8
  store ptr %0, ptr %6, align 8, !tbaa !28
  store ptr %1, ptr %7, align 8, !tbaa !46
  store ptr %2, ptr %8, align 8, !tbaa !12
  store i64 %3, ptr %9, align 8, !tbaa !14
  call void @llvm.lifetime.start.p0(i64 4, ptr %10) #13
  call void @llvm.lifetime.start.p0(i64 8, ptr %11) #13
  store ptr @super_root_node, ptr %11, align 8, !tbaa !22
  call void @llvm.lifetime.start.p0(i64 8, ptr %12) #13
  store i64 0, ptr %12, align 8, !tbaa !14
  br label %15

15:                                               ; preds = %73, %4
  %16 = load i64, ptr %12, align 8, !tbaa !14
  %17 = load i64, ptr %9, align 8, !tbaa !14
  %18 = icmp ult i64 %16, %17
  br i1 %18, label %20, label %19

19:                                               ; preds = %15
  store i32 2, ptr %13, align 4
  br label %76

20:                                               ; preds = %15
  br label %21

21:                                               ; preds = %20
  br label %22

22:                                               ; preds = %21
  br label %23

23:                                               ; preds = %22
  br label %24

24:                                               ; preds = %23
  br label %25

25:                                               ; preds = %24
  br label %26

26:                                               ; preds = %25
  %27 = load ptr, ptr %11, align 8, !tbaa !22
  %28 = getelementptr inbounds nuw %struct.ctl_named_node_s, ptr %27, i32 0, i32 3
  %29 = load ptr, ptr %28, align 8, !tbaa !48
  %30 = call ptr @ctl_named_node(ptr noundef %29)
  %31 = icmp ne ptr %30, null
  br i1 %31, label %32, label %49

32:                                               ; preds = %26
  %33 = load ptr, ptr %11, align 8, !tbaa !22
  %34 = getelementptr inbounds nuw %struct.ctl_named_node_s, ptr %33, i32 0, i32 2
  %35 = load i64, ptr %34, align 8, !tbaa !49
  %36 = load ptr, ptr %8, align 8, !tbaa !12
  %37 = load i64, ptr %12, align 8, !tbaa !14
  %38 = getelementptr inbounds nuw i64, ptr %36, i64 %37
  %39 = load i64, ptr %38, align 8, !tbaa !14
  %40 = icmp ule i64 %35, %39
  br i1 %40, label %41, label %42

41:                                               ; preds = %32
  store i32 2, ptr %10, align 4, !tbaa !20
  store i32 9, ptr %13, align 4
  br label %76

42:                                               ; preds = %32
  %43 = load ptr, ptr %11, align 8, !tbaa !22
  %44 = load ptr, ptr %8, align 8, !tbaa !12
  %45 = load i64, ptr %12, align 8, !tbaa !14
  %46 = getelementptr inbounds nuw i64, ptr %44, i64 %45
  %47 = load i64, ptr %46, align 8, !tbaa !14
  %48 = call ptr @ctl_named_children(ptr noundef %43, i64 noundef %47)
  store ptr %48, ptr %11, align 8, !tbaa !22
  br label %72

49:                                               ; preds = %26
  call void @llvm.lifetime.start.p0(i64 8, ptr %14) #13
  %50 = load ptr, ptr %11, align 8, !tbaa !22
  %51 = getelementptr inbounds nuw %struct.ctl_named_node_s, ptr %50, i32 0, i32 3
  %52 = load ptr, ptr %51, align 8, !tbaa !48
  %53 = call ptr @ctl_indexed_node(ptr noundef %52)
  store ptr %53, ptr %14, align 8, !tbaa !52
  %54 = load ptr, ptr %14, align 8, !tbaa !52
  %55 = getelementptr inbounds nuw %struct.ctl_indexed_node_s, ptr %54, i32 0, i32 1
  %56 = load ptr, ptr %55, align 8, !tbaa !54
  %57 = load ptr, ptr %6, align 8, !tbaa !28
  %58 = load ptr, ptr %8, align 8, !tbaa !12
  %59 = load i64, ptr %9, align 8, !tbaa !14
  %60 = load ptr, ptr %8, align 8, !tbaa !12
  %61 = load i64, ptr %12, align 8, !tbaa !14
  %62 = getelementptr inbounds nuw i64, ptr %60, i64 %61
  %63 = load i64, ptr %62, align 8, !tbaa !14
  %64 = call ptr %56(ptr noundef %57, ptr noundef %58, i64 noundef %59, i64 noundef %63)
  store ptr %64, ptr %11, align 8, !tbaa !22
  %65 = load ptr, ptr %11, align 8, !tbaa !22
  %66 = icmp eq ptr %65, null
  br i1 %66, label %67, label %68

67:                                               ; preds = %49
  store i32 2, ptr %10, align 4, !tbaa !20
  store i32 9, ptr %13, align 4
  br label %69

68:                                               ; preds = %49
  store i32 0, ptr %13, align 4
  br label %69

69:                                               ; preds = %67, %68
  call void @llvm.lifetime.end.p0(i64 8, ptr %14) #13
  %70 = load i32, ptr %13, align 4
  switch i32 %70, label %76 [
    i32 0, label %71
  ]

71:                                               ; preds = %69
  br label %72

72:                                               ; preds = %71, %42
  br label %73

73:                                               ; preds = %72
  %74 = load i64, ptr %12, align 8, !tbaa !14
  %75 = add i64 %74, 1
  store i64 %75, ptr %12, align 8, !tbaa !14
  br label %15, !llvm.loop !58

76:                                               ; preds = %41, %69, %19
  call void @llvm.lifetime.end.p0(i64 8, ptr %12) #13
  %77 = load i32, ptr %13, align 4
  switch i32 %77, label %86 [
    i32 2, label %78
    i32 9, label %84
  ]

78:                                               ; preds = %76
  br label %79

79:                                               ; preds = %78
  br label %80

80:                                               ; preds = %79
  br label %81

81:                                               ; preds = %80
  %82 = load ptr, ptr %11, align 8, !tbaa !22
  %83 = load ptr, ptr %7, align 8, !tbaa !46
  store ptr %82, ptr %83, align 8, !tbaa !22
  store i32 0, ptr %10, align 4, !tbaa !20
  br label %84

84:                                               ; preds = %81, %76
  %85 = load i32, ptr %10, align 4, !tbaa !20
  store i32 %85, ptr %5, align 4
  store i32 1, ptr %13, align 4
  br label %86

86:                                               ; preds = %84, %76
  call void @llvm.lifetime.end.p0(i64 8, ptr %11) #13
  call void @llvm.lifetime.end.p0(i64 4, ptr %10) #13
  %87 = load i32, ptr %5, align 4
  ret i32 %87
}

; Function Attrs: alwaysinline nounwind uwtable
define internal ptr @tsd_tsdn(ptr noundef %0) #2 {
  %2 = alloca ptr, align 8
  store ptr %0, ptr %2, align 8, !tbaa !4
  %3 = load ptr, ptr %2, align 8, !tbaa !4
  ret ptr %3
}

; Function Attrs: nounwind uwtable
define hidden i32 @je_ctl_mibnametomib(ptr noundef %0, ptr noundef %1, i64 noundef %2, ptr noundef %3, ptr noundef %4) #0 {
  %6 = alloca ptr, align 8
  %7 = alloca ptr, align 8
  %8 = alloca i64, align 8
  %9 = alloca ptr, align 8
  %10 = alloca ptr, align 8
  %11 = alloca i32, align 4
  %12 = alloca ptr, align 8
  store ptr %0, ptr %6, align 8, !tbaa !4
  store ptr %1, ptr %7, align 8, !tbaa !12
  store i64 %2, ptr %8, align 8, !tbaa !14
  store ptr %3, ptr %9, align 8, !tbaa !9
  store ptr %4, ptr %10, align 8, !tbaa !12
  call void @llvm.lifetime.start.p0(i64 4, ptr %11) #13
  call void @llvm.lifetime.start.p0(i64 8, ptr %12) #13
  %13 = load i8, ptr @ctl_initialized, align 1, !tbaa !16, !range !18, !noundef !19
  %14 = trunc i8 %13 to i1
  br i1 %14, label %19, label %15

15:                                               ; preds = %5
  %16 = load ptr, ptr %6, align 8, !tbaa !4
  %17 = call zeroext i1 @ctl_init(ptr noundef %16)
  br i1 %17, label %18, label %19

18:                                               ; preds = %15
  store i32 11, ptr %11, align 4, !tbaa !20
  br label %61

19:                                               ; preds = %15, %5
  %20 = load ptr, ptr %6, align 8, !tbaa !4
  %21 = call ptr @tsd_tsdn(ptr noundef %20)
  %22 = load ptr, ptr %7, align 8, !tbaa !12
  %23 = load i64, ptr %8, align 8, !tbaa !14
  %24 = call i32 @ctl_lookupbymib(ptr noundef %21, ptr noundef %12, ptr noundef %22, i64 noundef %23)
  store i32 %24, ptr %11, align 4, !tbaa !20
  %25 = load i32, ptr %11, align 4, !tbaa !20
  %26 = icmp ne i32 %25, 0
  br i1 %26, label %27, label %28

27:                                               ; preds = %19
  br label %61

28:                                               ; preds = %19
  %29 = load ptr, ptr %12, align 8, !tbaa !22
  %30 = icmp eq ptr %29, null
  br i1 %30, label %36, label %31

31:                                               ; preds = %28
  %32 = load ptr, ptr %12, align 8, !tbaa !22
  %33 = getelementptr inbounds nuw %struct.ctl_named_node_s, ptr %32, i32 0, i32 4
  %34 = load ptr, ptr %33, align 8, !tbaa !24
  %35 = icmp ne ptr %34, null
  br i1 %35, label %36, label %37

36:                                               ; preds = %31, %28
  store i32 2, ptr %11, align 4, !tbaa !20
  br label %61

37:                                               ; preds = %31
  br label %38

38:                                               ; preds = %37
  br label %39

39:                                               ; preds = %38
  br label %40

40:                                               ; preds = %39
  br label %41

41:                                               ; preds = %40
  br label %42

42:                                               ; preds = %41
  br label %43

43:                                               ; preds = %42
  %44 = load i64, ptr %8, align 8, !tbaa !14
  %45 = load ptr, ptr %10, align 8, !tbaa !12
  %46 = load i64, ptr %45, align 8, !tbaa !14
  %47 = sub i64 %46, %44
  store i64 %47, ptr %45, align 8, !tbaa !14
  %48 = load ptr, ptr %6, align 8, !tbaa !4
  %49 = call ptr @tsd_tsdn(ptr noundef %48)
  %50 = load ptr, ptr %12, align 8, !tbaa !22
  %51 = load ptr, ptr %9, align 8, !tbaa !9
  %52 = load ptr, ptr %7, align 8, !tbaa !12
  %53 = load i64, ptr %8, align 8, !tbaa !14
  %54 = getelementptr inbounds nuw i64, ptr %52, i64 %53
  %55 = load ptr, ptr %10, align 8, !tbaa !12
  %56 = call i32 @ctl_lookup(ptr noundef %49, ptr noundef %50, ptr noundef %51, ptr noundef null, ptr noundef %54, ptr noundef %55)
  store i32 %56, ptr %11, align 4, !tbaa !20
  %57 = load i64, ptr %8, align 8, !tbaa !14
  %58 = load ptr, ptr %10, align 8, !tbaa !12
  %59 = load i64, ptr %58, align 8, !tbaa !14
  %60 = add i64 %59, %57
  store i64 %60, ptr %58, align 8, !tbaa !14
  br label %61

61:                                               ; preds = %43, %36, %27, %18
  %62 = load i32, ptr %11, align 4, !tbaa !20
  call void @llvm.lifetime.end.p0(i64 8, ptr %12) #13
  call void @llvm.lifetime.end.p0(i64 4, ptr %11) #13
  ret i32 %62
}