; Function Attrs: nounwind uwtable
define hidden range(i32 0, 12) i32 @je_ctl_mibnametomib(ptr noundef %0, ptr noundef %1, i64 noundef %2, ptr noundef %3, ptr noundef captures(none) %4) local_unnamed_addr #0 {
  %.b16 = load i1, ptr @ctl_initialized, align 1
  br i1 %.b16, label %8, label %6

6:                                                ; preds = %5
  %7 = tail call fastcc zeroext i1 @ctl_init(ptr noundef %0)
  br i1 %7, label %ctl_lookupbymib.exit, label %8

8:                                                ; preds = %6, %5
  %.not.i = icmp eq i64 %2, 0
  br i1 %.not.i, label %.thread, label %.lr.ph.i

.lr.ph.i:                                         ; preds = %8, %24
  %.02440.i = phi i64 [ %25, %24 ], [ 0, %8 ]
  %.02539.i = phi ptr [ %.2.i, %24 ], [ @super_root_node, %8 ]
  %9 = getelementptr inbounds nuw i8, ptr %.02539.i, i64 24
  %10 = load ptr, ptr %9, align 8, !tbaa !46
  %11 = load i8, ptr %10, align 1, !tbaa !47, !range !48, !noundef !49
  %12 = trunc nuw i8 %11 to i1
  %13 = getelementptr inbounds nuw i64, ptr %1, i64 %.02440.i
  %14 = load i64, ptr %13, align 8, !tbaa !4
  br i1 %12, label %15, label %20

15:                                               ; preds = %.lr.ph.i
  %16 = getelementptr inbounds nuw i8, ptr %.02539.i, i64 16
  %17 = load i64, ptr %16, align 8, !tbaa !50
  %.not33.i = icmp ugt i64 %17, %14
  br i1 %.not33.i, label %18, label %ctl_lookupbymib.exit

18:                                               ; preds = %15
  %19 = getelementptr inbounds nuw %struct.ctl_named_node_s, ptr %10, i64 %14
  br label %24

20:                                               ; preds = %.lr.ph.i
  %21 = getelementptr inbounds nuw i8, ptr %10, i64 8
  %22 = load ptr, ptr %21, align 8, !tbaa !53
  %23 = tail call ptr %22(ptr noundef %0, ptr noundef nonnull %1, i64 noundef %2, i64 noundef %14) #15
  %.not32.i = icmp eq ptr %23, null
  br i1 %.not32.i, label %ctl_lookupbymib.exit, label %24

24:                                               ; preds = %20, %18
  %.2.i = phi ptr [ %19, %18 ], [ %23, %20 ]
  %25 = add nuw i64 %.02440.i, 1
  %exitcond.not.i = icmp eq i64 %25, %2
  br i1 %exitcond.not.i, label %26, label %.lr.ph.i, !llvm.loop !57

26:                                               ; preds = %24
  %27 = icmp eq ptr %.2.i, null
  br i1 %27, label %ctl_lookupbymib.exit, label %.thread

.thread:                                          ; preds = %8, %26
  %.019.ph25 = phi ptr [ %.2.i, %26 ], [ @super_root_node, %8 ]
  %28 = getelementptr inbounds nuw i8, ptr %.019.ph25, i64 32
  %29 = load ptr, ptr %28, align 8, !tbaa !11
  %.not17 = icmp eq ptr %29, null
  br i1 %.not17, label %30, label %ctl_lookupbymib.exit

30:                                               ; preds = %.thread
  %31 = load i64, ptr %4, align 8, !tbaa !4
  %32 = sub i64 %31, %2
  store i64 %32, ptr %4, align 8, !tbaa !4
  %33 = getelementptr inbounds nuw i64, ptr %1, i64 %2
  %34 = tail call fastcc i32 @ctl_lookup(ptr noundef %0, ptr noundef nonnull %.019.ph25, ptr noundef %3, ptr noundef null, ptr noundef %33, ptr noundef nonnull %4)
  %35 = load i64, ptr %4, align 8, !tbaa !4
  %36 = add i64 %35, %2
  store i64 %36, ptr %4, align 8, !tbaa !4
  br label %ctl_lookupbymib.exit

ctl_lookupbymib.exit:                             ; preds = %20, %15, %26, %.thread, %6, %30
  %.0 = phi i32 [ %34, %30 ], [ 11, %6 ], [ 2, %.thread ], [ 2, %26 ], [ 2, %15 ], [ 2, %20 ]
  ret i32 %.0
}